target datalayout = "e-m:e-p270:32:32-p271:32:32-p272:64:64-i64:64-i128:128-f80:128-n8:16:32:64-S128"
target triple = "x86_64-pc-linux-gnu"

%struct.H5FL_reg_head_t = type { i8, i32, i32, ptr, i64, ptr }
%struct.H5D_copy_file_ud_t = type { %struct.H5O_copy_file_ud_common_t, ptr, ptr }
%struct.H5O_copy_file_ud_common_t = type { ptr }

@H5_H5D_copy_file_ud_t_reg_free_list = global %struct.H5FL_reg_head_t { i8 0, i32 0, i32 0, ptr @.str.1, i64 24, ptr null }, align 8

; Function Attrs: nounwind uwtable
define internal void @H5O__dset_free_copy_file_udata(ptr noundef %0) #0 {
  %2 = alloca ptr, align 8
  %3 = alloca ptr, align 8
  store ptr %0, ptr %2, align 8
  %4 = load ptr, ptr %2, align 8
  store ptr %4, ptr %3, align 8
  %5 = load ptr, ptr %3, align 8
  %6 = getelementptr inbounds %struct.H5D_copy_file_ud_t, ptr %5, i32 0, i32 1
  %7 = load ptr, ptr %6, align 8
  %8 = icmp ne ptr %7, null
  br i1 %8, label %9, label %14

9:                                                ; preds = %1
  %10 = load ptr, ptr %3, align 8
  %11 = getelementptr inbounds %struct.H5D_copy_file_ud_t, ptr %10, i32 0, i32 1
  %12 = load ptr, ptr %11, align 8
  %13 = call ptr @H5O_msg_free(i32 noundef 1, ptr noundef %12)
  br label %14

14:                                               ; preds = %9, %1
  %15 = load ptr, ptr %3, align 8
  %16 = getelementptr inbounds %struct.H5D_copy_file_ud_t, ptr %15, i32 0, i32 2
  %17 = load ptr, ptr %16, align 8
  %18 = icmp ne ptr %17, null
  br i1 %18, label %19, label %24

19:                                               ; preds = %14
  %20 = load ptr, ptr %3, align 8
  %21 = getelementptr inbounds %struct.H5D_copy_file_ud_t, ptr %20, i32 0, i32 2
  %22 = load ptr, ptr %21, align 8
  %23 = call i32 @H5T_close_real(ptr noundef %22)
  br label %24

24:                                               ; preds = %19, %14
  %25 = load ptr, ptr %3, align 8
  %26 = getelementptr inbounds %struct.H5D_copy_file_ud_t, ptr %25, i32 0, i32 0
  %27 = getelementptr inbounds %struct.H5O_copy_file_ud_common_t, ptr %26, i32 0, i32 0
  %28 = load ptr, ptr %27, align 8
  %29 = icmp ne ptr %28, null
  br i1 %29, label %30, label %36

30:                                               ; preds = %24
  %31 = load ptr, ptr %3, align 8
  %32 = getelementptr inbounds %struct.H5D_copy_file_ud_t, ptr %31, i32 0, i32 0
  %33 = getelementptr inbounds %struct.H5O_copy_file_ud_common_t, ptr %32, i32 0, i32 0
  %34 = load ptr, ptr %33, align 8
  %35 = call ptr @H5O_msg_free(i32 noundef 11, ptr noundef %34)
  br label %36

36:                                               ; preds = %30, %24
  %37 = load ptr, ptr %3, align 8
  %38 = call ptr @H5FL_reg_free(ptr noundef @H5_H5D_copy_file_ud_t_reg_free_list, ptr noundef %37)
  store ptr %38, ptr %3, align 8
  ret void
}