; Function Attrs: nounwind uwtable
define internal void @H5O__dset_free_copy_file_udata(ptr noundef %0) #0 {
  %2 = getelementptr inbounds i8, ptr %0, i64 8
  %3 = load ptr, ptr %2, align 8
  %.not = icmp eq ptr %3, null
  br i1 %.not, label %6, label %4

4:                                                ; preds = %1
  %5 = tail call ptr @H5O_msg_free(i32 noundef 1, ptr noundef nonnull %3) #3
  br label %6

6:                                                ; preds = %4, %1
  %7 = getelementptr inbounds i8, ptr %0, i64 16
  %8 = load ptr, ptr %7, align 8
  %.not10 = icmp eq ptr %8, null
  br i1 %.not10, label %11, label %9

9:                                                ; preds = %6
  %10 = tail call i32 @H5T_close_real(ptr noundef nonnull %8) #3
  br label %11

11:                                               ; preds = %9, %6
  %12 = load ptr, ptr %0, align 8
  %.not11 = icmp eq ptr %12, null
  br i1 %.not11, label %15, label %13

13:                                               ; preds = %11
  %14 = tail call ptr @H5O_msg_free(i32 noundef 11, ptr noundef nonnull %12) #3
  br label %15

15:                                               ; preds = %13, %11
  %16 = tail call ptr @H5FL_reg_free(ptr noundef nonnull @H5_H5D_copy_file_ud_t_reg_free_list, ptr noundef nonnull %0) #3
  ret void
}